target datalayout = "e-m:e-p270:32:32-p271:32:32-p272:64:64-i64:64-i128:128-f80:128-n8:16:32:64-S128"
target triple = "x86_64-pc-linux-gnu"

%"class.std::__cxx11::basic_string" = type { %"struct.std::__cxx11::basic_string<char>::_Alloc_hider", i64, %union.anon }
%"struct.std::__cxx11::basic_string<char>::_Alloc_hider" = type { ptr }
%union.anon = type { i64, [8 x i8] }
%"class.std::allocator" = type { i8 }
%"class.std::basic_string_view" = type { i64, ptr }
%"class.std::tuple.2" = type { %"struct.std::_Tuple_impl.3" }
%"struct.std::_Tuple_impl.3" = type { %"struct.std::_Tuple_impl.4", %"struct.std::_Head_base.12" }
%"struct.std::_Tuple_impl.4" = type { %"struct.std::_Tuple_impl.5", %"struct.std::_Head_base.11" }
%"struct.std::_Tuple_impl.5" = type { %"struct.std::_Tuple_impl.6", %"struct.std::_Head_base.10" }
%"struct.std::_Tuple_impl.6" = type { %"struct.std::_Tuple_impl.7", %"struct.std::_Head_base.9" }
%"struct.std::_Tuple_impl.7" = type { %"struct.std::_Head_base.8" }
%"struct.std::_Head_base.8" = type { %"class.std::__cxx11::basic_string" }
%"struct.std::_Head_base.9" = type { %"class.std::__cxx11::basic_string" }
%"struct.std::_Head_base.10" = type { %"class.std::__cxx11::basic_string" }
%"struct.std::_Head_base.11" = type { %"class.std::__cxx11::basic_string" }
%"struct.std::_Head_base.12" = type { %"class.std::__cxx11::basic_string" }
%class.anon = type { ptr, ptr }

@.str.7 = private unnamed_addr constant [7 x i8] c"string\00", align 1
@.str.8 = private unnamed_addr constant [1 x i8] zeroinitializer, align 1
@.str.9 = private unnamed_addr constant [3 x i8] c"hi\00", align 1
@.str.10 = private unnamed_addr constant [13 x i8] c"white rabbit\00", align 1
@.str.11 = private unnamed_addr constant [10 x i8] c"\E5\A4\A7\E7\99\BD\E5\85\94\00", align 1
@.str.12 = private unnamed_addr constant [25 x i8] c"oh no \00\00\00 what was that!\00", align 1

; Function Attrs: mustprogress uwtable
define linkonce_odr void @_ZNSt10_Head_baseILm0ENSt7__cxx1112basic_stringIcSt11char_traitsIcESaIcEEELb0EEC2IRA1_KcEEOT_(ptr noundef nonnull align 8 dereferenceable(32) %0, ptr noundef nonnull align 1 dereferenceable(1) %1) unnamed_addr #5 comdat align 2 personality ptr @__gxx_personality_v0 {
  %3 = alloca ptr, align 8
  %4 = alloca ptr, align 8
  %5 = alloca %"class.std::allocator", align 1
  %6 = alloca ptr, align 8
  %7 = alloca i32, align 4
  store ptr %0, ptr %3, align 8
  store ptr %1, ptr %4, align 8
  %8 = load ptr, ptr %3, align 8
  %9 = getelementptr inbounds %"struct.std::_Head_base.12", ptr %8, i32 0, i32 0
  %10 = load ptr, ptr %4, align 8
  %11 = getelementptr inbounds [1 x i8], ptr %10, i64 0, i64 0
  call void @_ZNSaIcEC1Ev(ptr noundef nonnull align 1 dereferenceable(1) %5) #3
  invoke void @_ZNSt7__cxx1112basic_stringIcSt11char_traitsIcESaIcEEC2IS3_EEPKcRKS3_(ptr noundef nonnull align 8 dereferenceable(32) %9, ptr noundef %11, ptr noundef nonnull align 1 dereferenceable(1) %5)
          to label %12 unwind label %13

12:                                               ; preds = %2
  call void @_ZNSaIcED1Ev(ptr noundef nonnull align 1 dereferenceable(1) %5) #3
  ret void

13:                                               ; preds = %2
  %14 = landingpad { ptr, i32 }
          cleanup
  %15 = extractvalue { ptr, i32 } %14, 0
  store ptr %15, ptr %6, align 8
  %16 = extractvalue { ptr, i32 } %14, 1
  store i32 %16, ptr %7, align 4
  call void @_ZNSaIcED1Ev(ptr noundef nonnull align 1 dereferenceable(1) %5) #3
  br label %17

17:                                               ; preds = %13
  %18 = load ptr, ptr %6, align 8
  %19 = load i32, ptr %7, align 4
  %20 = insertvalue { ptr, i32 } poison, ptr %18, 0
  %21 = insertvalue { ptr, i32 } %20, i32 %19, 1
  resume { ptr, i32 } %21
}

; Function Attrs: mustprogress uwtable
define linkonce_odr void @_ZNSt11_Tuple_implILm0EJNSt7__cxx1112basic_stringIcSt11char_traitsIcESaIcEEES5_S5_S5_S5_EEC2IRA1_KcJRA3_S8_RA13_S8_RA10_S8_RA25_S8_EvEEOT_DpOT0_(ptr noundef nonnull align 8 dereferenceable(160) %0, ptr noundef nonnull align 1 dereferenceable(1) %1, ptr noundef nonnull align 1 dereferenceable(3) %2, ptr noundef nonnull align 1 dereferenceable(13) %3, ptr noundef nonnull align 1 dereferenceable(10) %4, ptr noundef nonnull align 1 dereferenceable(25) %5) unnamed_addr #5 comdat align 2 personality ptr @__gxx_personality_v0 {
  %7 = alloca ptr, align 8
  %8 = alloca ptr, align 8
  %9 = alloca ptr, align 8
  %10 = alloca ptr, align 8
  %11 = alloca ptr, align 8
  %12 = alloca ptr, align 8
  %13 = alloca ptr, align 8
  %14 = alloca i32, align 4
  store ptr %0, ptr %7, align 8
  store ptr %1, ptr %8, align 8
  store ptr %2, ptr %9, align 8
  store ptr %3, ptr %10, align 8
  store ptr %4, ptr %11, align 8
  store ptr %5, ptr %12, align 8
  %15 = load ptr, ptr %7, align 8
  %16 = load ptr, ptr %9, align 8
  %17 = load ptr, ptr %10, align 8
  %18 = load ptr, ptr %11, align 8
  %19 = load ptr, ptr %12, align 8
  call void @_ZNSt11_Tuple_implILm1EJNSt7__cxx1112basic_stringIcSt11char_traitsIcESaIcEEES5_S5_S5_EEC2IRA3_KcJRA13_S8_RA10_S8_RA25_S8_EvEEOT_DpOT0_(ptr noundef nonnull align 8 dereferenceable(128) %15, ptr noundef nonnull align 1 dereferenceable(3) %16, ptr noundef nonnull align 1 dereferenceable(13) %17, ptr noundef nonnull align 1 dereferenceable(10) %18, ptr noundef nonnull align 1 dereferenceable(25) %19)
  %20 = getelementptr inbounds i8, ptr %15, i64 128
  %21 = load ptr, ptr %8, align 8
  invoke void @_ZNSt10_Head_baseILm0ENSt7__cxx1112basic_stringIcSt11char_traitsIcESaIcEEELb0EEC2IRA1_KcEEOT_(ptr noundef nonnull align 8 dereferenceable(32) %20, ptr noundef nonnull align 1 dereferenceable(1) %21)
          to label %22 unwind label %23

22:                                               ; preds = %6
  ret void

23:                                               ; preds = %6
  %24 = landingpad { ptr, i32 }
          cleanup
  %25 = extractvalue { ptr, i32 } %24, 0
  store ptr %25, ptr %13, align 8
  %26 = extractvalue { ptr, i32 } %24, 1
  store i32 %26, ptr %14, align 4
  call void @_ZNSt11_Tuple_implILm1EJNSt7__cxx1112basic_stringIcSt11char_traitsIcESaIcEEES5_S5_S5_EED2Ev(ptr noundef nonnull align 8 dereferenceable(128) %15) #3
  br label %27

27:                                               ; preds = %23
  %28 = load ptr, ptr %13, align 8
  %29 = load i32, ptr %14, align 4
  %30 = insertvalue { ptr, i32 } poison, ptr %28, 0
  %31 = insertvalue { ptr, i32 } %30, i32 %29, 1
  resume { ptr, i32 } %31
}

; Function Attrs: mustprogress nounwind uwtable
define linkonce_odr noundef i64 @_ZNSt11char_traitsIcE6lengthEPKc(ptr noundef %0) #4 comdat align 2 {
  %2 = alloca ptr, align 8
  store ptr %0, ptr %2, align 8
  %3 = load ptr, ptr %2, align 8
  %4 = call i64 @strlen(ptr noundef %3) #3
  ret i64 %4
}

; Function Attrs: mustprogress uwtable
define linkonce_odr void @_ZN3nix15CommonProtoTest13readProtoTestISt5tupleIJNSt7__cxx1112basic_stringIcSt11char_traitsIcESaIcEEES8_S8_S8_S8_EEEEvSt17basic_string_viewIcS6_ERKT_(ptr noundef nonnull align 8 dereferenceable(64) %0, i64 %1, ptr %2, ptr noundef nonnull align 8 dereferenceable(160) %3) #5 comdat align 2 {
  %5 = alloca %"class.std::basic_string_view", align 8
  %6 = alloca ptr, align 8
  %7 = alloca ptr, align 8
  %8 = alloca %"class.std::basic_string_view", align 8
  %9 = alloca %class.anon, align 8
  %10 = getelementptr inbounds { i64, ptr }, ptr %5, i32 0, i32 0
  store i64 %1, ptr %10, align 8
  %11 = getelementptr inbounds { i64, ptr }, ptr %5, i32 0, i32 1
  store ptr %2, ptr %11, align 8
  store ptr %0, ptr %6, align 8
  store ptr %3, ptr %7, align 8
  %12 = load ptr, ptr %6, align 8
  call void @llvm.memcpy.p0.p0.i64(ptr align 8 %8, ptr align 8 %5, i64 16, i1 false)
  %13 = getelementptr inbounds %class.anon, ptr %9, i32 0, i32 0
  store ptr %12, ptr %13, align 8
  %14 = getelementptr inbounds %class.anon, ptr %9, i32 0, i32 1
  %15 = load ptr, ptr %7, align 8
  store ptr %15, ptr %14, align 8
  %16 = getelementptr inbounds { i64, ptr }, ptr %8, i32 0, i32 0
  %17 = load i64, ptr %16, align 8
  %18 = getelementptr inbounds { i64, ptr }, ptr %8, i32 0, i32 1
  %19 = load ptr, ptr %18, align 8
  call void @_ZN3nix20CharacterizationTest8readTestIZNS_15CommonProtoTest13readProtoTestISt5tupleIJNSt7__cxx1112basic_stringIcSt11char_traitsIcESaIcEEESA_SA_SA_SA_EEEEvSt17basic_string_viewIcS8_ERKT_EUlSG_E_EEvSD_OSE_(ptr noundef nonnull align 8 dereferenceable(8) %12, i64 %17, ptr %19, ptr noundef nonnull align 8 dereferenceable(16) %9)
  ret void
}

; Function Attrs: mustprogress uwtable
define linkonce_odr void @_ZNSt5tupleIJNSt7__cxx1112basic_stringIcSt11char_traitsIcESaIcEEES5_S5_S5_S5_EEC2IJRA1_KcRA3_S8_RA13_S8_RA10_S8_RA25_S8_ELb1ETnNSt9enable_ifIXclsr4_TCCIXT0_EEE29__is_implicitly_constructibleIDpT_EEEbE4typeELb1EEEDpOSK_(ptr noundef nonnull align 8 dereferenceable(160) %0, ptr noundef nonnull align 1 dereferenceable(1) %1, ptr noundef nonnull align 1 dereferenceable(3) %2, ptr noundef nonnull align 1 dereferenceable(13) %3, ptr noundef nonnull align 1 dereferenceable(10) %4, ptr noundef nonnull align 1 dereferenceable(25) %5) unnamed_addr #5 comdat align 2 {
  %7 = alloca ptr, align 8
  %8 = alloca ptr, align 8
  %9 = alloca ptr, align 8
  %10 = alloca ptr, align 8
  %11 = alloca ptr, align 8
  %12 = alloca ptr, align 8
  store ptr %0, ptr %7, align 8
  store ptr %1, ptr %8, align 8
  store ptr %2, ptr %9, align 8
  store ptr %3, ptr %10, align 8
  store ptr %4, ptr %11, align 8
  store ptr %5, ptr %12, align 8
  %13 = load ptr, ptr %7, align 8
  %14 = load ptr, ptr %8, align 8
  %15 = load ptr, ptr %9, align 8
  %16 = load ptr, ptr %10, align 8
  %17 = load ptr, ptr %11, align 8
  %18 = load ptr, ptr %12, align 8
  call void @_ZNSt11_Tuple_implILm0EJNSt7__cxx1112basic_stringIcSt11char_traitsIcESaIcEEES5_S5_S5_S5_EEC2IRA1_KcJRA3_S8_RA13_S8_RA10_S8_RA25_S8_EvEEOT_DpOT0_(ptr noundef nonnull align 8 dereferenceable(160) %13, ptr noundef nonnull align 1 dereferenceable(1) %14, ptr noundef nonnull align 1 dereferenceable(3) %15, ptr noundef nonnull align 1 dereferenceable(13) %16, ptr noundef nonnull align 1 dereferenceable(10) %17, ptr noundef nonnull align 1 dereferenceable(25) %18)
  ret void
}

; Function Attrs: mustprogress nounwind uwtable
define linkonce_odr void @_ZNSt17basic_string_viewIcSt11char_traitsIcEEC2EPKc(ptr noundef nonnull align 8 dereferenceable(16) %0, ptr noundef nonnull %1) unnamed_addr #4 comdat align 2 {
  %3 = alloca ptr, align 8
  %4 = alloca ptr, align 8
  store ptr %0, ptr %3, align 8
  store ptr %1, ptr %4, align 8
  %5 = load ptr, ptr %3, align 8
  %6 = getelementptr inbounds %"class.std::basic_string_view", ptr %5, i32 0, i32 0
  %7 = load ptr, ptr %4, align 8
  %8 = call noundef i64 @_ZNSt11char_traitsIcE6lengthEPKc(ptr noundef %7)
  store i64 %8, ptr %6, align 8
  %9 = getelementptr inbounds %"class.std::basic_string_view", ptr %5, i32 0, i32 1
  %10 = load ptr, ptr %4, align 8
  store ptr %10, ptr %9, align 8
  ret void
}

; Function Attrs: mustprogress uwtable
define void @_ZN3nix32CommonProtoTest_string_read_Test8TestBodyEv(ptr noundef nonnull align 8 dereferenceable(64) %0) unnamed_addr #5 align 2 personality ptr @__gxx_personality_v0 {
  %2 = alloca ptr, align 8
  %3 = alloca %"class.std::basic_string_view", align 8
  %4 = alloca %"class.std::tuple.2", align 8
  %5 = alloca ptr, align 8
  %6 = alloca i32, align 4
  store ptr %0, ptr %2, align 8
  %7 = load ptr, ptr %2, align 8
  call void @_ZNSt17basic_string_viewIcSt11char_traitsIcEEC2EPKc(ptr noundef nonnull align 8 dereferenceable(16) %3, ptr noundef @.str.7) #3
  call void @_ZNSt5tupleIJNSt7__cxx1112basic_stringIcSt11char_traitsIcESaIcEEES5_S5_S5_S5_EEC2IJRA1_KcRA3_S8_RA13_S8_RA10_S8_RA25_S8_ELb1ETnNSt9enable_ifIXclsr4_TCCIXT0_EEE29__is_implicitly_constructibleIDpT_EEEbE4typeELb1EEEDpOSK_(ptr noundef nonnull align 8 dereferenceable(160) %4, ptr noundef nonnull align 1 dereferenceable(1) @.str.8, ptr noundef nonnull align 1 dereferenceable(3) @.str.9, ptr noundef nonnull align 1 dereferenceable(13) @.str.10, ptr noundef nonnull align 1 dereferenceable(10) @.str.11, ptr noundef nonnull align 1 dereferenceable(25) @.str.12)
  %8 = getelementptr inbounds { i64, ptr }, ptr %3, i32 0, i32 0
  %9 = load i64, ptr %8, align 8
  %10 = getelementptr inbounds { i64, ptr }, ptr %3, i32 0, i32 1
  %11 = load ptr, ptr %10, align 8
  invoke void @_ZN3nix15CommonProtoTest13readProtoTestISt5tupleIJNSt7__cxx1112basic_stringIcSt11char_traitsIcESaIcEEES8_S8_S8_S8_EEEEvSt17basic_string_viewIcS6_ERKT_(ptr noundef nonnull align 8 dereferenceable(64) %7, i64 %9, ptr %11, ptr noundef nonnull align 8 dereferenceable(160) %4)
          to label %12 unwind label %13

12:                                               ; preds = %1
  call void @_ZNSt5tupleIJNSt7__cxx1112basic_stringIcSt11char_traitsIcESaIcEEES5_S5_S5_S5_EED2Ev(ptr noundef nonnull align 8 dereferenceable(160) %4) #3
  ret void

13:                                               ; preds = %1
  %14 = landingpad { ptr, i32 }
          cleanup
  %15 = extractvalue { ptr, i32 } %14, 0
  store ptr %15, ptr %5, align 8
  %16 = extractvalue { ptr, i32 } %14, 1
  store i32 %16, ptr %6, align 4
  call void @_ZNSt5tupleIJNSt7__cxx1112basic_stringIcSt11char_traitsIcESaIcEEES5_S5_S5_S5_EED2Ev(ptr noundef nonnull align 8 dereferenceable(160) %4) #3
  br label %17

17:                                               ; preds = %13
  %18 = load ptr, ptr %5, align 8
  %19 = load i32, ptr %6, align 4
  %20 = insertvalue { ptr, i32 } poison, ptr %18, 0
  %21 = insertvalue { ptr, i32 } %20, i32 %19, 1
  resume { ptr, i32 } %21
}