; Function Attrs: mustprogress uwtable
define void @_ZN3nix32CommonProtoTest_string_read_Test8TestBodyEv(ptr noundef nonnull align 8 dereferenceable(64) %0) unnamed_addr #4 align 2 personality ptr @__gxx_personality_v0 {
  %2 = alloca %class.anon, align 8
  %3 = alloca %"class.std::allocator", align 1
  %4 = alloca %"class.std::tuple.2", align 8
  call void @_ZNSt11_Tuple_implILm1EJNSt7__cxx1112basic_stringIcSt11char_traitsIcESaIcEEES5_S5_S5_EEC2IRA3_KcJRA13_S8_RA10_S8_RA25_S8_EvEEOT_DpOT0_(ptr noundef nonnull align 8 dereferenceable(128) %4, ptr noundef nonnull align 1 dereferenceable(3) @.str.9, ptr noundef nonnull align 1 dereferenceable(13) @.str.10, ptr noundef nonnull align 1 dereferenceable(10) @.str.11, ptr noundef nonnull align 1 dereferenceable(25) @.str.12)
  %5 = getelementptr inbounds i8, ptr %4, i64 128
  call void @llvm.lifetime.start.p0(i64 1, ptr nonnull %3)
  call void @_ZNSaIcEC1Ev(ptr noundef nonnull align 1 dereferenceable(1) %3) #25
  invoke void @_ZNSt7__cxx1112basic_stringIcSt11char_traitsIcESaIcEEC2IS3_EEPKcRKS3_(ptr noundef nonnull align 8 dereferenceable(32) %5, ptr noundef nonnull @.str.8, ptr noundef nonnull align 1 dereferenceable(1) %3)
          to label %_ZNSt5tupleIJNSt7__cxx1112basic_stringIcSt11char_traitsIcESaIcEEES5_S5_S5_S5_EEC2IJRA1_KcRA3_S8_RA13_S8_RA10_S8_RA25_S8_ELb1ETnNSt9enable_ifIXclsr4_TCCIXT0_EEE29__is_implicitly_constructibleIDpT_EEEbE4typeELb1EEEDpOSK_.exit unwind label %.body.i.i

common.resume:                                    ; preds = %15, %.body.i.i
  %common.resume.op = phi { ptr, i32 } [ %6, %.body.i.i ], [ %16, %15 ]
  resume { ptr, i32 } %common.resume.op

.body.i.i:                                        ; preds = %1
  %6 = landingpad { ptr, i32 }
          cleanup
  call void @_ZNSaIcED1Ev(ptr noundef nonnull align 1 dereferenceable(1) %3) #25
  call void @_ZNSt11_Tuple_implILm1EJNSt7__cxx1112basic_stringIcSt11char_traitsIcESaIcEEES5_S5_S5_EED2Ev(ptr noundef nonnull align 8 dereferenceable(128) %4) #25
  br label %common.resume

_ZNSt5tupleIJNSt7__cxx1112basic_stringIcSt11char_traitsIcESaIcEEES5_S5_S5_S5_EEC2IJRA1_KcRA3_S8_RA13_S8_RA10_S8_RA25_S8_ELb1ETnNSt9enable_ifIXclsr4_TCCIXT0_EEE29__is_implicitly_constructibleIDpT_EEEbE4typeELb1EEEDpOSK_.exit: ; preds = %1
  call void @_ZNSaIcED1Ev(ptr noundef nonnull align 1 dereferenceable(1) %3) #25
  call void @llvm.lifetime.end.p0(i64 1, ptr nonnull %3)
  call void @llvm.lifetime.start.p0(i64 16, ptr nonnull %2)
  store ptr %0, ptr %2, align 8
  %7 = getelementptr inbounds i8, ptr %2, i64 8
  store ptr %4, ptr %7, align 8
  invoke void @_ZN3nix20CharacterizationTest8readTestIZNS_15CommonProtoTest13readProtoTestISt5tupleIJNSt7__cxx1112basic_stringIcSt11char_traitsIcESaIcEEESA_SA_SA_SA_EEEEvSt17basic_string_viewIcS8_ERKT_EUlSG_E_EEvSD_OSE_(ptr noundef nonnull align 8 dereferenceable(8) %0, i64 6, ptr nonnull @.str.7, ptr noundef nonnull align 8 dereferenceable(16) %2)
          to label %8 unwind label %15

8:                                                ; preds = %_ZNSt5tupleIJNSt7__cxx1112basic_stringIcSt11char_traitsIcESaIcEEES5_S5_S5_S5_EEC2IJRA1_KcRA3_S8_RA13_S8_RA10_S8_RA25_S8_ELb1ETnNSt9enable_ifIXclsr4_TCCIXT0_EEE29__is_implicitly_constructibleIDpT_EEEbE4typeELb1EEEDpOSK_.exit
  call void @llvm.lifetime.end.p0(i64 16, ptr nonnull %2)
  %9 = load ptr, ptr %5, align 8
  %10 = getelementptr inbounds i8, ptr %4, i64 144
  %11 = icmp eq ptr %9, %10
  br i1 %11, label %_ZNKSt7__cxx1112basic_stringIcSt11char_traitsIcESaIcEE11_M_is_localEv.exit.thread.i.i.i.i.i, label %_ZNKSt7__cxx1112basic_stringIcSt11char_traitsIcESaIcEE11_M_is_localEv.exit.i.i.i.i.i

_ZNKSt7__cxx1112basic_stringIcSt11char_traitsIcESaIcEE11_M_is_localEv.exit.thread.i.i.i.i.i: ; preds = %8
  %12 = getelementptr inbounds i8, ptr %4, i64 136
  %13 = load i64, ptr %12, align 8
  %14 = icmp ult i64 %13, 16
  call void @llvm.assume(i1 %14)
  br label %_ZNSt5tupleIJNSt7__cxx1112basic_stringIcSt11char_traitsIcESaIcEEES5_S5_S5_S5_EED2Ev.exit

_ZNKSt7__cxx1112basic_stringIcSt11char_traitsIcESaIcEE11_M_is_localEv.exit.i.i.i.i.i: ; preds = %8
  call void @_ZdlPv(ptr noundef %9) #28
  br label %_ZNSt5tupleIJNSt7__cxx1112basic_stringIcSt11char_traitsIcESaIcEEES5_S5_S5_S5_EED2Ev.exit

_ZNSt5tupleIJNSt7__cxx1112basic_stringIcSt11char_traitsIcESaIcEEES5_S5_S5_S5_EED2Ev.exit: ; preds = %_ZNKSt7__cxx1112basic_stringIcSt11char_traitsIcESaIcEE11_M_is_localEv.exit.thread.i.i.i.i.i, %_ZNKSt7__cxx1112basic_stringIcSt11char_traitsIcESaIcEE11_M_is_localEv.exit.i.i.i.i.i
  call void @_ZNSaIcED2Ev(ptr noundef nonnull align 1 dereferenceable(1) %5) #25
  call void @_ZNSt11_Tuple_implILm1EJNSt7__cxx1112basic_stringIcSt11char_traitsIcESaIcEEES5_S5_S5_EED2Ev(ptr noundef nonnull align 8 dereferenceable(128) %4) #25
  ret void

15:                                               ; preds = %_ZNSt5tupleIJNSt7__cxx1112basic_stringIcSt11char_traitsIcESaIcEEES5_S5_S5_S5_EEC2IJRA1_KcRA3_S8_RA13_S8_RA10_S8_RA25_S8_ELb1ETnNSt9enable_ifIXclsr4_TCCIXT0_EEE29__is_implicitly_constructibleIDpT_EEEbE4typeELb1EEEDpOSK_.exit
  %16 = landingpad { ptr, i32 }
          cleanup
  call void @_ZNSt5tupleIJNSt7__cxx1112basic_stringIcSt11char_traitsIcESaIcEEES5_S5_S5_S5_EED2Ev(ptr noundef nonnull align 8 dereferenceable(160) %4) #25
  br label %common.resume
}